; Function Attrs: nounwind sspstrong uwtable
define hidden void @rb_vm_cond_wait(ptr noundef %0, ptr noundef %1) local_unnamed_addr #2 {
  %3 = getelementptr inbounds nuw i8, ptr %0, i64 48
  %4 = getelementptr inbounds nuw i8, ptr %0, i64 96
  %5 = load i32, ptr %4, align 8, !tbaa !61
  %6 = getelementptr inbounds nuw i8, ptr %0, i64 88
  %7 = load ptr, ptr %6, align 8, !tbaa !12
  store i32 0, ptr %4, align 8, !tbaa !61
  store ptr null, ptr %6, align 8, !tbaa !12
  tail call void @rb_native_cond_wait(ptr noundef %1, ptr noundef nonnull %3) #7
  store i32 %5, ptr %4, align 8, !tbaa !61
  store ptr %7, ptr %6, align 8, !tbaa !12
  ret void
}